target datalayout = "e-m:e-p270:32:32-p271:32:32-p272:64:64-i64:64-i128:128-f80:128-n8:16:32:64-S128"
target triple = "x86_64-pc-linux-gnu"

%struct.GG_State = type { %struct.lua_State, %struct.global_State, %struct.jit_State, [64 x i16], [243 x ptr], [57 x i32] }
%struct.lua_State = type { %struct.GCRef, i8, i8, i8, i8, %struct.MRef, %struct.GCRef, ptr, ptr, %struct.MRef, %struct.MRef, %struct.GCRef, %struct.GCRef, ptr, i32 }
%struct.MRef = type { i64 }
%struct.GCRef = type { i64 }
%struct.global_State = type { ptr, ptr, %struct.GCState, %struct.GCstr, i8, i8, i8, i8, %struct.StrInternState, i32, %struct.GCRef, %struct.SBuf, %union.TValue, %union.TValue, %struct.Node, %union.TValue, %struct.GCupval, i32, i32, ptr, ptr, ptr, i32, i32, %struct.GCRef, %struct.MRef, %struct.MRef, %struct.PRNGState, [39 x %struct.GCRef] }
%struct.GCState = type { i64, i64, i8, i8, i8, i8, i32, %struct.GCRef, %struct.MRef, %struct.GCRef, %struct.GCRef, %struct.GCRef, %struct.GCRef, i64, i64, i32, i32, %struct.MRef }
%struct.GCstr = type { %struct.GCRef, i8, i8, i8, i8, i32, i32, i32 }
%struct.StrInternState = type { ptr, i32, i32, i32, i8, i8, i8, i8, i64 }
%struct.SBuf = type { ptr, ptr, ptr, %struct.MRef }
%struct.Node = type { %union.TValue, %union.TValue, %struct.MRef }
%union.TValue = type { i64 }
%struct.GCupval = type { %struct.GCRef, i8, i8, i8, i8, %union.anon, %struct.MRef, i32 }
%union.anon = type { %struct.anon.1 }
%struct.anon.1 = type { %struct.GCRef, %struct.GCRef }
%struct.PRNGState = type { [4 x i64] }
%struct.jit_State = type { %struct.GCtrace, ptr, ptr, ptr, ptr, ptr, ptr, i32, i32, i32, i8, i8, %struct.IRType1, i8, %struct.FoldState, ptr, i32, i32, i32, i32, i32, i32, i32, [1 x i32], [5 x %union.TValue], [3 x %union.TValue], ptr, i32, i32, i32, i32, ptr, ptr, i32, i32, i8, ptr, i32, i32, i16, [101 x i16], [258 x i32], [15 x i32], [16 x ptr], [64 x %struct.HotPenalty], i32, [16 x %struct.BPropEntry], i32, %struct.ScEvEntry, ptr, i32, i32, i32, ptr, i32, i32, ptr, ptr, ptr, i64, i64, %union.TValue, ptr, i32, i32 }
%struct.GCtrace = type { %struct.GCRef, i8, i8, i16, i32, i32, %struct.GCRef, ptr, i32, i32, ptr, ptr, %struct.GCRef, %struct.MRef, i32, i32, ptr, i32, i16, i16, i16, i16, i16, i16, i16, i8, i8, i8, i8 }
%struct.IRType1 = type { i8 }
%struct.FoldState = type { %union.IRIns, [2 x %union.IRIns], [2 x %union.IRIns] }
%union.IRIns = type { %struct.GCRef }
%struct.HotPenalty = type { %struct.MRef, i16, i16 }
%struct.BPropEntry = type { i16, i16, i32 }
%struct.ScEvEntry = type { %struct.MRef, i16, i16, i16, i16, %struct.IRType1, i8 }

@lj_vm_asm_begin = external hidden global [0 x i8], align 1
@lj_bc_ofs = external hidden constant [0 x i16], align 2

; Function Attrs: nounwind uwtable
define hidden void @lj_dispatch_init(ptr noundef %0) #0 {
  %2 = alloca ptr, align 8
  %3 = alloca i32, align 4
  %4 = alloca ptr, align 8
  store ptr %0, ptr %2, align 8, !tbaa !4
  call void @llvm.lifetime.start.p0(i64 4, ptr %3) #7
  call void @llvm.lifetime.start.p0(i64 8, ptr %4) #7
  %5 = load ptr, ptr %2, align 8, !tbaa !4
  %6 = getelementptr inbounds nuw %struct.GG_State, ptr %5, i32 0, i32 4
  %7 = getelementptr inbounds [243 x ptr], ptr %6, i64 0, i64 0
  store ptr %7, ptr %4, align 8, !tbaa !9
  store i32 0, ptr %3, align 4, !tbaa !10
  br label %8

8:                                                ; preds = %28, %1
  %9 = load i32, ptr %3, align 4, !tbaa !10
  %10 = icmp ult i32 %9, 89
  br i1 %10, label %11, label %31

11:                                               ; preds = %8
  %12 = load i32, ptr %3, align 4, !tbaa !10
  %13 = zext i32 %12 to i64
  %14 = getelementptr inbounds nuw [0 x i16], ptr @lj_bc_ofs, i64 0, i64 %13
  %15 = load i16, ptr %14, align 2, !tbaa !12
  %16 = zext i16 %15 to i32
  %17 = sext i32 %16 to i64
  %18 = getelementptr inbounds i8, ptr @lj_vm_asm_begin, i64 %17
  %19 = load ptr, ptr %4, align 8, !tbaa !9
  %20 = load i32, ptr %3, align 4, !tbaa !10
  %21 = zext i32 %20 to i64
  %22 = getelementptr inbounds nuw ptr, ptr %19, i64 %21
  store ptr %18, ptr %22, align 8, !tbaa !9
  %23 = load ptr, ptr %4, align 8, !tbaa !9
  %24 = load i32, ptr %3, align 4, !tbaa !10
  %25 = add i32 154, %24
  %26 = zext i32 %25 to i64
  %27 = getelementptr inbounds nuw ptr, ptr %23, i64 %26
  store ptr %18, ptr %27, align 8, !tbaa !9
  br label %28

28:                                               ; preds = %11
  %29 = load i32, ptr %3, align 4, !tbaa !10
  %30 = add i32 %29, 1
  store i32 %30, ptr %3, align 4, !tbaa !10
  br label %8, !llvm.loop !14

31:                                               ; preds = %8
  store i32 89, ptr %3, align 4, !tbaa !10
  br label %32

32:                                               ; preds = %47, %31
  %33 = load i32, ptr %3, align 4, !tbaa !10
  %34 = icmp ult i32 %33, 154
  br i1 %34, label %35, label %50

35:                                               ; preds = %32
  %36 = load i32, ptr %3, align 4, !tbaa !10
  %37 = zext i32 %36 to i64
  %38 = getelementptr inbounds nuw [0 x i16], ptr @lj_bc_ofs, i64 0, i64 %37
  %39 = load i16, ptr %38, align 2, !tbaa !12
  %40 = zext i16 %39 to i32
  %41 = sext i32 %40 to i64
  %42 = getelementptr inbounds i8, ptr @lj_vm_asm_begin, i64 %41
  %43 = load ptr, ptr %4, align 8, !tbaa !9
  %44 = load i32, ptr %3, align 4, !tbaa !10
  %45 = zext i32 %44 to i64
  %46 = getelementptr inbounds nuw ptr, ptr %43, i64 %45
  store ptr %42, ptr %46, align 8, !tbaa !9
  br label %47

47:                                               ; preds = %35
  %48 = load i32, ptr %3, align 4, !tbaa !10
  %49 = add i32 %48, 1
  store i32 %49, ptr %3, align 4, !tbaa !10
  br label %32, !llvm.loop !16

50:                                               ; preds = %32
  %51 = load ptr, ptr %4, align 8, !tbaa !9
  %52 = getelementptr inbounds ptr, ptr %51, i64 80
  %53 = load ptr, ptr %52, align 8, !tbaa !9
  %54 = load ptr, ptr %4, align 8, !tbaa !9
  %55 = getelementptr inbounds ptr, ptr %54, i64 79
  store ptr %53, ptr %55, align 8, !tbaa !9
  %56 = load ptr, ptr %4, align 8, !tbaa !9
  %57 = getelementptr inbounds ptr, ptr %56, i64 83
  %58 = load ptr, ptr %57, align 8, !tbaa !9
  %59 = load ptr, ptr %4, align 8, !tbaa !9
  %60 = getelementptr inbounds ptr, ptr %59, i64 82
  store ptr %58, ptr %60, align 8, !tbaa !9
  %61 = load ptr, ptr %4, align 8, !tbaa !9
  %62 = getelementptr inbounds ptr, ptr %61, i64 70
  store ptr @lj_vm_IITERN, ptr %62, align 8, !tbaa !9
  %63 = load ptr, ptr %4, align 8, !tbaa !9
  %64 = getelementptr inbounds ptr, ptr %63, i64 86
  %65 = load ptr, ptr %64, align 8, !tbaa !9
  %66 = load ptr, ptr %4, align 8, !tbaa !9
  %67 = getelementptr inbounds ptr, ptr %66, i64 85
  store ptr %65, ptr %67, align 8, !tbaa !9
  %68 = load ptr, ptr %4, align 8, !tbaa !9
  %69 = getelementptr inbounds ptr, ptr %68, i64 90
  %70 = load ptr, ptr %69, align 8, !tbaa !9
  %71 = load ptr, ptr %4, align 8, !tbaa !9
  %72 = getelementptr inbounds ptr, ptr %71, i64 89
  store ptr %70, ptr %72, align 8, !tbaa !9
  %73 = load ptr, ptr %4, align 8, !tbaa !9
  %74 = getelementptr inbounds ptr, ptr %73, i64 93
  %75 = load ptr, ptr %74, align 8, !tbaa !9
  %76 = load ptr, ptr %4, align 8, !tbaa !9
  %77 = getelementptr inbounds ptr, ptr %76, i64 92
  store ptr %75, ptr %77, align 8, !tbaa !9
  %78 = load ptr, ptr %2, align 8, !tbaa !4
  %79 = getelementptr inbounds nuw %struct.GG_State, ptr %78, i32 0, i32 1
  %80 = getelementptr inbounds nuw %struct.global_State, ptr %79, i32 0, i32 22
  store i32 5215, ptr %80, align 8, !tbaa !17
  %81 = load ptr, ptr %2, align 8, !tbaa !4
  %82 = getelementptr inbounds nuw %struct.GG_State, ptr %81, i32 0, i32 1
  %83 = getelementptr inbounds nuw %struct.global_State, ptr %82, i32 0, i32 23
  store i32 5215, ptr %83, align 4, !tbaa !46
  store i32 0, ptr %3, align 4, !tbaa !10
  br label %84

84:                                               ; preds = %97, %50
  %85 = load i32, ptr %3, align 4, !tbaa !10
  %86 = icmp ult i32 %85, 57
  br i1 %86, label %87, label %100

87:                                               ; preds = %84
  %88 = load i32, ptr %3, align 4, !tbaa !10
  %89 = add i32 97, %88
  %90 = or i32 %89, 0
  %91 = or i32 %90, 0
  %92 = load ptr, ptr %2, align 8, !tbaa !4
  %93 = getelementptr inbounds nuw %struct.GG_State, ptr %92, i32 0, i32 5
  %94 = load i32, ptr %3, align 4, !tbaa !10
  %95 = zext i32 %94 to i64
  %96 = getelementptr inbounds nuw [57 x i32], ptr %93, i64 0, i64 %95
  store i32 %91, ptr %96, align 4, !tbaa !10
  br label %97

97:                                               ; preds = %87
  %98 = load i32, ptr %3, align 4, !tbaa !10
  %99 = add i32 %98, 1
  store i32 %99, ptr %3, align 4, !tbaa !10
  br label %84, !llvm.loop !47

100:                                              ; preds = %84
  call void @llvm.lifetime.end.p0(i64 8, ptr %4) #7
  call void @llvm.lifetime.end.p0(i64 4, ptr %3) #7
  ret void
}