; Function Attrs: nofree norecurse nosync nounwind memory(argmem: readwrite) uwtable
define hidden void @lj_dispatch_init(ptr noundef captures(none) %0) local_unnamed_addr #0 {
  %2 = getelementptr inbounds nuw i8, ptr %0, i64 4072
  br label %3

3:                                                ; preds = %1, %3
  %indvars.iv = phi i64 [ 0, %1 ], [ %indvars.iv.next, %3 ]
  %4 = getelementptr inbounds nuw [0 x i16], ptr @lj_bc_ofs, i64 0, i64 %indvars.iv
  %5 = load i16, ptr %4, align 2, !tbaa !4
  %6 = zext i16 %5 to i64
  %7 = getelementptr inbounds nuw i8, ptr @lj_vm_asm_begin, i64 %6
  %8 = getelementptr inbounds nuw ptr, ptr %2, i64 %indvars.iv
  store ptr %7, ptr %8, align 8, !tbaa !8
  %9 = getelementptr inbounds nuw i8, ptr %8, i64 1232
  store ptr %7, ptr %9, align 8, !tbaa !8
  %indvars.iv.next = add nuw nsw i64 %indvars.iv, 1
  %exitcond.not = icmp eq i64 %indvars.iv.next, 89
  br i1 %exitcond.not, label %.preheader, label %3, !llvm.loop !10

.preheader:                                       ; preds = %3, %.preheader
  %indvars.iv34 = phi i64 [ %indvars.iv.next35, %.preheader ], [ 89, %3 ]
  %10 = getelementptr inbounds nuw [0 x i16], ptr @lj_bc_ofs, i64 0, i64 %indvars.iv34
  %11 = load i16, ptr %10, align 2, !tbaa !4
  %12 = zext i16 %11 to i64
  %13 = getelementptr inbounds nuw i8, ptr @lj_vm_asm_begin, i64 %12
  %14 = getelementptr inbounds nuw ptr, ptr %2, i64 %indvars.iv34
  store ptr %13, ptr %14, align 8, !tbaa !8
  %indvars.iv.next35 = add nuw nsw i64 %indvars.iv34, 1
  %exitcond37.not = icmp eq i64 %indvars.iv.next35, 154
  br i1 %exitcond37.not, label %15, label %.preheader, !llvm.loop !12

15:                                               ; preds = %.preheader
  %16 = getelementptr inbounds nuw i8, ptr %0, i64 4712
  %17 = load ptr, ptr %16, align 8, !tbaa !8
  %18 = getelementptr inbounds nuw i8, ptr %0, i64 4704
  store ptr %17, ptr %18, align 8, !tbaa !8
  %19 = getelementptr inbounds nuw i8, ptr %0, i64 4736
  %20 = load ptr, ptr %19, align 8, !tbaa !8
  %21 = getelementptr inbounds nuw i8, ptr %0, i64 4728
  store ptr %20, ptr %21, align 8, !tbaa !8
  %22 = getelementptr inbounds nuw i8, ptr %0, i64 4632
  store ptr @lj_vm_IITERN, ptr %22, align 8, !tbaa !8
  %23 = getelementptr inbounds nuw i8, ptr %0, i64 4760
  %24 = load ptr, ptr %23, align 8, !tbaa !8
  %25 = getelementptr inbounds nuw i8, ptr %0, i64 4752
  store ptr %24, ptr %25, align 8, !tbaa !8
  %26 = getelementptr inbounds nuw i8, ptr %0, i64 4792
  %27 = load ptr, ptr %26, align 8, !tbaa !8
  %28 = getelementptr inbounds nuw i8, ptr %0, i64 4784
  store ptr %27, ptr %28, align 8, !tbaa !8
  %29 = getelementptr inbounds nuw i8, ptr %0, i64 4816
  %30 = load ptr, ptr %29, align 8, !tbaa !8
  %31 = getelementptr inbounds nuw i8, ptr %0, i64 4808
  store ptr %30, ptr %31, align 8, !tbaa !8
  %32 = getelementptr inbounds nuw i8, ptr %0, i64 456
  store i32 5215, ptr %32, align 8, !tbaa !13
  %33 = getelementptr inbounds nuw i8, ptr %0, i64 460
  store i32 5215, ptr %33, align 4, !tbaa !43
  %34 = getelementptr inbounds nuw i8, ptr %0, i64 6016
  br label %35

35:                                               ; preds = %15, %35
  %indvars.iv38 = phi i64 [ 0, %15 ], [ %indvars.iv.next39, %35 ]
  %36 = getelementptr inbounds nuw [57 x i32], ptr %34, i64 0, i64 %indvars.iv38
  %37 = trunc i64 %indvars.iv38 to i32
  %38 = add i32 %37, 97
  store i32 %38, ptr %36, align 4, !tbaa !44
  %indvars.iv.next39 = add nuw nsw i64 %indvars.iv38, 1
  %exitcond41.not = icmp eq i64 %indvars.iv.next39, 57
  br i1 %exitcond41.not, label %39, label %35, !llvm.loop !45

39:                                               ; preds = %35
  ret void
}